; Function Attrs: nounwind uwtable
define ptr @OSSL_DECODER_settable_ctx_params(ptr noundef readonly captures(address_is_null) %0) local_unnamed_addr #2 {
  %.not = icmp eq ptr %0, null
  br i1 %.not, label %9, label %2

2:                                                ; preds = %1
  %3 = getelementptr inbounds nuw i8, ptr %0, i64 88
  %4 = load ptr, ptr %3, align 8, !tbaa !32
  %.not7 = icmp eq ptr %4, null
  br i1 %.not7, label %9, label %OSSL_DECODER_get0_provider.exit

OSSL_DECODER_get0_provider.exit:                  ; preds = %2
  %5 = load ptr, ptr %0, align 8, !tbaa !16
  %6 = tail call ptr @ossl_provider_ctx(ptr noundef %5) #8
  %7 = load ptr, ptr %3, align 8, !tbaa !32
  %8 = tail call ptr %7(ptr noundef %6) #8
  br label %9

9:                                                ; preds = %1, %2, %OSSL_DECODER_get0_provider.exit
  %.0 = phi ptr [ %8, %OSSL_DECODER_get0_provider.exit ], [ null, %2 ], [ null, %1 ]
  ret ptr %.0
}